target datalayout = "e-m:e-p270:32:32-p271:32:32-p272:64:64-i64:64-i128:128-f80:128-n8:16:32:64-S128"
target triple = "x86_64-pc-linux-gnu"

%struct.mbim_conv_info = type { ptr, ptr, i32, i32, i32 }

@hf_mbim_base_station_max_gsm_count = internal global i32 0, align 4
@hf_mbim_base_station_max_umts_count = internal global i32 0, align 4
@hf_mbim_base_station_max_td_scdma_count = internal global i32 0, align 4
@hf_mbim_base_station_max_lte_count = internal global i32 0, align 4
@hf_mbim_base_station_max_cdma_count = internal global i32 0, align 4
@hf_mbim_base_station_max_nr_count = internal global i32 0, align 4
@preferred_mbim_extended_version = internal global i32 1, align 4

; Function Attrs: nounwind uwtable
define internal void @mbim_dissect_base_station_info_req(ptr noundef %0, ptr noundef %1, i32 noundef %2, ptr noundef %3) #0 {
  %5 = alloca ptr, align 8
  %6 = alloca ptr, align 8
  %7 = alloca i32, align 4
  %8 = alloca ptr, align 8
  store ptr %0, ptr %5, align 8
  store ptr %1, ptr %6, align 8
  store i32 %2, ptr %7, align 4
  store ptr %3, ptr %8, align 8
  %9 = load ptr, ptr %6, align 8
  %10 = load i32, ptr @hf_mbim_base_station_max_gsm_count, align 4
  %11 = load ptr, ptr %5, align 8
  %12 = load i32, ptr %7, align 4
  %13 = call ptr @proto_tree_add_item(ptr noundef %9, i32 noundef %10, ptr noundef %11, i32 noundef %12, i32 noundef 4, i32 noundef -2147483648)
  %14 = load i32, ptr %7, align 4
  %15 = add i32 %14, 4
  store i32 %15, ptr %7, align 4
  %16 = load ptr, ptr %6, align 8
  %17 = load i32, ptr @hf_mbim_base_station_max_umts_count, align 4
  %18 = load ptr, ptr %5, align 8
  %19 = load i32, ptr %7, align 4
  %20 = call ptr @proto_tree_add_item(ptr noundef %16, i32 noundef %17, ptr noundef %18, i32 noundef %19, i32 noundef 4, i32 noundef -2147483648)
  %21 = load i32, ptr %7, align 4
  %22 = add i32 %21, 4
  store i32 %22, ptr %7, align 4
  %23 = load ptr, ptr %6, align 8
  %24 = load i32, ptr @hf_mbim_base_station_max_td_scdma_count, align 4
  %25 = load ptr, ptr %5, align 8
  %26 = load i32, ptr %7, align 4
  %27 = call ptr @proto_tree_add_item(ptr noundef %23, i32 noundef %24, ptr noundef %25, i32 noundef %26, i32 noundef 4, i32 noundef -2147483648)
  %28 = load i32, ptr %7, align 4
  %29 = add i32 %28, 4
  store i32 %29, ptr %7, align 4
  %30 = load ptr, ptr %6, align 8
  %31 = load i32, ptr @hf_mbim_base_station_max_lte_count, align 4
  %32 = load ptr, ptr %5, align 8
  %33 = load i32, ptr %7, align 4
  %34 = call ptr @proto_tree_add_item(ptr noundef %30, i32 noundef %31, ptr noundef %32, i32 noundef %33, i32 noundef 4, i32 noundef -2147483648)
  %35 = load i32, ptr %7, align 4
  %36 = add i32 %35, 4
  store i32 %36, ptr %7, align 4
  %37 = load ptr, ptr %6, align 8
  %38 = load i32, ptr @hf_mbim_base_station_max_cdma_count, align 4
  %39 = load ptr, ptr %5, align 8
  %40 = load i32, ptr %7, align 4
  %41 = call ptr @proto_tree_add_item(ptr noundef %37, i32 noundef %38, ptr noundef %39, i32 noundef %40, i32 noundef 4, i32 noundef -2147483648)
  %42 = load i32, ptr %7, align 4
  %43 = add i32 %42, 4
  store i32 %43, ptr %7, align 4
  %44 = load ptr, ptr %8, align 8
  %45 = getelementptr inbounds %struct.mbim_conv_info, ptr %44, i32 0, i32 4
  %46 = load i32, ptr %45, align 8
  %47 = icmp uge i32 %46, 3
  br i1 %47, label %56, label %48

48:                                               ; preds = %4
  %49 = load ptr, ptr %8, align 8
  %50 = getelementptr inbounds %struct.mbim_conv_info, ptr %49, i32 0, i32 4
  %51 = load i32, ptr %50, align 8
  %52 = icmp eq i32 %51, 0
  br i1 %52, label %53, label %57

53:                                               ; preds = %48
  %54 = load i32, ptr @preferred_mbim_extended_version, align 4
  %55 = icmp sge i32 %54, 3
  br i1 %55, label %56, label %57

56:                                               ; preds = %53, %4
  br i1 true, label %58, label %64

57:                                               ; preds = %53, %48
  br i1 false, label %58, label %64

58:                                               ; preds = %57, %56
  %59 = load ptr, ptr %6, align 8
  %60 = load i32, ptr @hf_mbim_base_station_max_nr_count, align 4
  %61 = load ptr, ptr %5, align 8
  %62 = load i32, ptr %7, align 4
  %63 = call ptr @proto_tree_add_item(ptr noundef %59, i32 noundef %60, ptr noundef %61, i32 noundef %62, i32 noundef 4, i32 noundef -2147483648)
  br label %64

64:                                               ; preds = %58, %57, %56
  ret void
}