; Function Attrs: nounwind uwtable
define internal fastcc void @mbim_dissect_base_station_info_req(ptr noundef %0, ptr noundef %1, i32 noundef %2, ptr noundef readonly captures(none) %3) unnamed_addr #0 {
  %5 = load i32, ptr @hf_mbim_base_station_max_gsm_count, align 4
  %6 = tail call ptr @proto_tree_add_item(ptr noundef %1, i32 noundef %5, ptr noundef %0, i32 noundef %2, i32 noundef 4, i32 noundef -2147483648) #10
  %7 = add i32 %2, 4
  %8 = load i32, ptr @hf_mbim_base_station_max_umts_count, align 4
  %9 = tail call ptr @proto_tree_add_item(ptr noundef %1, i32 noundef %8, ptr noundef %0, i32 noundef %7, i32 noundef 4, i32 noundef -2147483648) #10
  %10 = add i32 %2, 8
  %11 = load i32, ptr @hf_mbim_base_station_max_td_scdma_count, align 4
  %12 = tail call ptr @proto_tree_add_item(ptr noundef %1, i32 noundef %11, ptr noundef %0, i32 noundef %10, i32 noundef 4, i32 noundef -2147483648) #10
  %13 = add i32 %2, 12
  %14 = load i32, ptr @hf_mbim_base_station_max_lte_count, align 4
  %15 = tail call ptr @proto_tree_add_item(ptr noundef %1, i32 noundef %14, ptr noundef %0, i32 noundef %13, i32 noundef 4, i32 noundef -2147483648) #10
  %16 = add i32 %2, 16
  %17 = load i32, ptr @hf_mbim_base_station_max_cdma_count, align 4
  %18 = tail call ptr @proto_tree_add_item(ptr noundef %1, i32 noundef %17, ptr noundef %0, i32 noundef %16, i32 noundef 4, i32 noundef -2147483648) #10
  %19 = add i32 %2, 20
  %20 = getelementptr inbounds nuw i8, ptr %3, i64 24
  %21 = load i32, ptr %20, align 8
  %22 = icmp ugt i32 %21, 2
  br i1 %22, label %27, label %23

23:                                               ; preds = %4
  %24 = icmp eq i32 %21, 0
  %25 = load i32, ptr @preferred_mbim_extended_version, align 4
  %26 = icmp sgt i32 %25, 2
  %or.cond = select i1 %24, i1 %26, i1 false
  br i1 %or.cond, label %27, label %30

27:                                               ; preds = %4, %23
  %28 = load i32, ptr @hf_mbim_base_station_max_nr_count, align 4
  %29 = tail call ptr @proto_tree_add_item(ptr noundef %1, i32 noundef %28, ptr noundef %0, i32 noundef %19, i32 noundef 4, i32 noundef -2147483648) #10
  br label %30

30:                                               ; preds = %23, %27
  ret void
}